target datalayout = "e-m:e-p270:32:32-p271:32:32-p272:64:64-i64:64-i128:128-f80:128-n8:16:32:64-S128"
target triple = "x86_64-unknown-linux-gnu"

%"class.sat::literal" = type { i32 }
%"class.euf::th_solver" = type { %"class.sat::extension", %"class.euf::th_model_builder", %"class.euf::th_decompile", %"class.euf::th_internalizer", ptr }
%"class.sat::extension" = type { ptr, i8, i32, %class.symbol, ptr }
%class.symbol = type { ptr }
%"class.euf::th_model_builder" = type { ptr }
%"class.euf::th_decompile" = type { ptr }
%"class.euf::th_internalizer" = type { ptr, %class.ptr_vector, %class.svector }
%class.svector = type { %class.vector.0 }
%class.vector.0 = type { ptr }
%class.ptr_vector = type { %class.vector }
%class.vector = type { ptr }
%class.svector.1 = type { %class.vector.2 }
%class.vector.2 = type { ptr }
%"class.arith::solver" = type { %"class.euf::th_euf_solver.base", [4 x i8], %class.int_hashtable, i8, %class.scoped_ptr_vector, i32, [4 x i8], %"class.arith::sls", %class.vector.11, %class.vector.12, i32, i32, i32, i32, %class.svector.13, %class.svector.15, %class.svector.17, %class.svector.19, %class.svector.21, %class.svector.15, ptr, %class.ptr_vector.23, %class.ptr_vector.25, %class.ptr_vector.23, %class.vector.27, %class.u_map, %class.vector.27, %class.svector.1, %class.svector.1, i32, %class.svector.30, i32, %class.indexed_uint_set, i32, %"struct.lp_api::stats", %class.svector.32, %class.scoped_ptr, %class.scoped_ptr.34, %class.scoped_ptr.35, %"class.arith::solver::resource_limit", %class.ptr_vector.36, %class.symbol, %"class.std::vector", %"class.lp::lp_bound_propagator", %class.vector.47, %"class.lp::explanation", %class.svector.15, %class.svector.15, %class.vector.11, %class.svector.17, %class.vector.51, %"class.nla::lemma", %class.arith_util, i8, %class.vector.48, %class.vector.48, %class.vector.48, %class.vector.11, %class.map.53, i32, %"class.sat::literal", %class.ref_vector, %class.obj_ref, %class.obj_map, %class.obj_map.61, i8, [7 x i8], %"class.arith::arith_proof_hint_builder" }
%"class.euf::th_euf_solver.base" = type <{ %"class.euf::th_solver", ptr, %class.ptr_vector, %class.svector.1, i32 }>
%class.int_hashtable = type { %class.core_hashtable.base, [4 x i8] }
%class.core_hashtable.base = type <{ %"struct.arith::solver::var_value_hash", %"struct.arith::solver::var_value_eq", ptr, i32, i32, i32 }>
%"struct.arith::solver::var_value_hash" = type { ptr }
%"struct.arith::solver::var_value_eq" = type { ptr }
%class.scoped_ptr_vector = type { %class.ptr_vector.3 }
%class.ptr_vector.3 = type { %class.vector.4 }
%class.vector.4 = type { ptr }
%"class.arith::sls" = type <{ %"class.sat::local_search_plugin", ptr, ptr, ptr, %"struct.arith::sls::stats", [4 x i8], %"struct.arith::sls::config", %class.scoped_ptr_vector.5, %class.vector.8, %class.svector.9, i8, [7 x i8] }>
%"class.sat::local_search_plugin" = type { ptr }
%"struct.arith::sls::stats" = type { i32 }
%"struct.arith::sls::config" = type { double, i32, i32, i32, double }
%class.scoped_ptr_vector.5 = type { %class.ptr_vector.6 }
%class.ptr_vector.6 = type { %class.vector.7 }
%class.vector.7 = type { ptr }
%class.vector.8 = type { ptr }
%class.svector.9 = type { %class.vector.10 }
%class.vector.10 = type { ptr }
%class.vector.12 = type { ptr }
%class.svector.13 = type { %class.vector.14 }
%class.vector.14 = type { ptr }
%class.svector.19 = type { %class.vector.20 }
%class.vector.20 = type { ptr }
%class.svector.21 = type { %class.vector.22 }
%class.vector.22 = type { ptr }
%class.ptr_vector.25 = type { %class.vector.26 }
%class.vector.26 = type { ptr }
%class.ptr_vector.23 = type { %class.vector.24 }
%class.vector.24 = type { ptr }
%class.u_map = type { %class.map }
%class.map = type { %class.table2map }
%class.table2map = type { %class.core_hashtable.28 }
%class.core_hashtable.28 = type <{ ptr, i32, i32, i32, [4 x i8] }>
%class.vector.27 = type { ptr }
%class.svector.30 = type { %class.vector.31 }
%class.vector.31 = type { ptr }
%class.indexed_uint_set = type { i32, %class.svector.1, %class.svector.1 }
%"struct.lp_api::stats" = type { i32, i32, i32, i32, i32, i32, i32, i32, i32, i32, i32, i32, i32, i32, i32, i32 }
%class.svector.32 = type { %class.vector.33 }
%class.vector.33 = type { ptr }
%class.scoped_ptr = type { ptr }
%class.scoped_ptr.34 = type { ptr }
%class.scoped_ptr.35 = type { ptr }
%"class.arith::solver::resource_limit" = type { %"class.lp::lp_resource_limit", ptr }
%"class.lp::lp_resource_limit" = type { ptr }
%class.ptr_vector.36 = type { %class.vector.37 }
%class.vector.37 = type { ptr }
%"class.std::vector" = type { %"struct.std::_Vector_base" }
%"struct.std::_Vector_base" = type { %"struct.std::_Vector_base<lp::implied_bound, std_allocator<lp::implied_bound>>::_Vector_impl" }
%"struct.std::_Vector_base<lp::implied_bound, std_allocator<lp::implied_bound>>::_Vector_impl" = type { %"struct.std::_Vector_base<lp::implied_bound, std_allocator<lp::implied_bound>>::_Vector_impl_data" }
%"struct.std::_Vector_base<lp::implied_bound, std_allocator<lp::implied_bound>>::_Vector_impl_data" = type { ptr, ptr, ptr }
%"class.lp::lp_bound_propagator" = type { %class.uint_set, %class.u_map.38, %class.u_map.38, ptr, ptr, %class.map.43, %class.map.43, %class.map.43, ptr }
%class.uint_set = type { %class.svector.1 }
%class.u_map.38 = type { %class.map.39 }
%class.map.39 = type { %class.table2map.40 }
%class.table2map.40 = type { %class.core_hashtable.41 }
%class.core_hashtable.41 = type <{ ptr, i32, i32, i32, [4 x i8] }>
%class.map.43 = type { %class.table2map.44 }
%class.table2map.44 = type { %class.core_hashtable.45 }
%class.core_hashtable.45 = type <{ ptr, i32, i32, i32, [4 x i8] }>
%class.vector.47 = type { ptr }
%"class.lp::explanation" = type { %class.vector.48, %class.hashtable }
%class.hashtable = type { %class.core_hashtable.base.50, [4 x i8] }
%class.core_hashtable.base.50 = type <{ ptr, i32, i32, i32 }>
%class.svector.15 = type { %class.vector.16 }
%class.vector.16 = type { ptr }
%class.svector.17 = type { %class.vector.18 }
%class.vector.18 = type { ptr }
%class.vector.51 = type { ptr }
%"class.nla::lemma" = type { %class.vector.52, %"class.lp::explanation" }
%class.vector.52 = type { ptr }
%class.arith_util = type { ptr, ptr }
%class.vector.48 = type { ptr }
%class.vector.11 = type { ptr }
%class.map.53 = type { %class.table2map.54 }
%class.table2map.54 = type { %class.core_hashtable.55 }
%class.core_hashtable.55 = type <{ ptr, i32, i32, i32, [4 x i8] }>
%class.ref_vector = type { %class.ref_vector_core }
%class.ref_vector_core = type { %class.ref_manager_wrapper, %class.ptr_vector.25 }
%class.ref_manager_wrapper = type { ptr }
%class.obj_ref = type { ptr, ptr }
%class.obj_map = type { %class.core_hashtable.57 }
%class.core_hashtable.57 = type <{ ptr, i32, i32, i32, [4 x i8] }>
%class.obj_map.61 = type { %class.core_hashtable.62 }
%class.core_hashtable.62 = type <{ ptr, i32, i32, i32, [4 x i8] }>
%"class.arith::arith_proof_hint_builder" = type <{ %class.vector.66, %class.svector.67, i32, i32, i32, i32, i32, [4 x i8] }>
%class.vector.66 = type { ptr }
%class.svector.67 = type { %class.vector.68 }
%class.vector.68 = type { ptr }
%class.app = type { %class.expr, ptr, i32, [0 x ptr] }
%class.expr = type { %class.ast }
%class.ast = type { i32, i24, i32, i32 }
%struct.theory_arith_params = type <{ i8, i8, [2 x i8], i32, i8, [3 x i8], i32, i8, [3 x i8], i32, i8, i8, [2 x i8], i32, i32, i8, i8, [2 x i8], i32, i32, i8, [3 x i8], i32, i32, i8, [3 x i8], double, double, i8, [3 x i8], i32, i8, i8, i8, i8, i8, [3 x i8], i32, i32, i8, [3 x i8], i32, i8, i8, i8, i8, i8, i8, [2 x i8], i32, i8, i8, [2 x i8], i32, i8, [3 x i8], i32, i8, i8, i8, i8 }>
%class.decl = type { %class.ast, %class.symbol, ptr }
%class.decl_info = type <{ i32, i32, %class.vector.51, i8, [7 x i8] }>

; Function Attrs: mustprogress nounwind uwtable
define linkonce_odr hidden noundef i32 @_ZNK9decl_info13get_family_idEv(ptr noundef nonnull align 8 dereferenceable(17) %this) #4 comdat align 2 {
entry:
  %this.addr = alloca ptr, align 8
  store ptr %this, ptr %this.addr, align 8
  %this1 = load ptr, ptr %this.addr, align 8
  %m_family_id = getelementptr inbounds %class.decl_info, ptr %this1, i32 0, i32 0
  %0 = load i32, ptr %m_family_id, align 8
  ret i32 %0
}

; Function Attrs: mustprogress uwtable
define linkonce_odr hidden noundef i32 @_ZNK4decl13get_family_idEv(ptr noundef nonnull align 8 dereferenceable(32) %this) #5 comdat align 2 {
entry:
  %this.addr = alloca ptr, align 8
  store ptr %this, ptr %this.addr, align 8
  %this1 = load ptr, ptr %this.addr, align 8
  %m_info = getelementptr inbounds %class.decl, ptr %this1, i32 0, i32 2
  %0 = load ptr, ptr %m_info, align 8
  %cmp = icmp eq ptr %0, null
  br i1 %cmp, label %cond.true, label %cond.false

cond.true:                                        ; preds = %entry
  br label %cond.end

cond.false:                                       ; preds = %entry
  %m_info2 = getelementptr inbounds %class.decl, ptr %this1, i32 0, i32 2
  %1 = load ptr, ptr %m_info2, align 8
  %call = call noundef i32 @_ZNK9decl_info13get_family_idEv(ptr noundef nonnull align 8 dereferenceable(17) %1)
  br label %cond.end

cond.end:                                         ; preds = %cond.false, %cond.true
  %cond = phi i32 [ -1, %cond.true ], [ %call, %cond.false ]
  ret i32 %cond
}

; Function Attrs: mustprogress nounwind uwtable
define linkonce_odr hidden noundef ptr @_ZNK3app8get_declEv(ptr noundef nonnull align 8 dereferenceable(32) %this) #4 comdat align 2 {
entry:
  %this.addr = alloca ptr, align 8
  store ptr %this, ptr %this.addr, align 8
  %this1 = load ptr, ptr %this.addr, align 8
  %m_decl = getelementptr inbounds %class.app, ptr %this1, i32 0, i32 1
  %0 = load ptr, ptr %m_decl, align 8
  ret ptr %0
}

; Function Attrs: mustprogress nounwind uwtable
define linkonce_odr hidden noundef i32 @_ZNK3ast8get_kindEv(ptr noundef nonnull align 4 dereferenceable(16) %this) #4 comdat align 2 {
entry:
  %this.addr = alloca ptr, align 8
  store ptr %this, ptr %this.addr, align 8
  %this1 = load ptr, ptr %this.addr, align 8
  %m_kind = getelementptr inbounds %class.ast, ptr %this1, i32 0, i32 1
  %bf.load = load i32, ptr %m_kind, align 4
  %bf.clear = and i32 %bf.load, 65535
  ret i32 %bf.clear
}

; Function Attrs: mustprogress uwtable
define linkonce_odr hidden noundef i32 @_ZNK3app13get_family_idEv(ptr noundef nonnull align 8 dereferenceable(32) %this) #5 comdat align 2 {
entry:
  %this.addr = alloca ptr, align 8
  store ptr %this, ptr %this.addr, align 8
  %this1 = load ptr, ptr %this.addr, align 8
  %call = call noundef ptr @_ZNK3app8get_declEv(ptr noundef nonnull align 8 dereferenceable(32) %this1)
  %call2 = call noundef i32 @_ZNK4decl13get_family_idEv(ptr noundef nonnull align 8 dereferenceable(32) %call)
  ret i32 %call2
}

; Function Attrs: mustprogress nounwind uwtable
define linkonce_odr hidden noundef ptr @_Z6to_appPK3ast(ptr noundef %n) #4 comdat {
entry:
  %n.addr = alloca ptr, align 8
  store ptr %n, ptr %n.addr, align 8
  %0 = load ptr, ptr %n.addr, align 8
  ret ptr %0
}

; Function Attrs: mustprogress nounwind uwtable
define linkonce_odr hidden noundef zeroext i1 @_Z6is_appPK3ast(ptr noundef %n) #4 comdat {
entry:
  %n.addr = alloca ptr, align 8
  store ptr %n, ptr %n.addr, align 8
  %0 = load ptr, ptr %n.addr, align 8
  %call = call noundef i32 @_ZNK3ast8get_kindEv(ptr noundef nonnull align 4 dereferenceable(16) %0)
  %cmp = icmp eq i32 %call, 0
  ret i1 %cmp
}

; Function Attrs: mustprogress uwtable
define linkonce_odr hidden noundef zeroext i1 @_ZNK17arith_recognizers13is_arith_exprEPK4expr(ptr noundef nonnull align 1 dereferenceable(1) %this, ptr noundef %n) #5 comdat align 2 {
entry:
  %this.addr = alloca ptr, align 8
  %n.addr = alloca ptr, align 8
  store ptr %this, ptr %this.addr, align 8
  store ptr %n, ptr %n.addr, align 8
  %0 = load ptr, ptr %n.addr, align 8
  %call = call noundef zeroext i1 @_Z6is_appPK3ast(ptr noundef %0)
  br i1 %call, label %land.rhs, label %land.end

land.rhs:                                         ; preds = %entry
  %1 = load ptr, ptr %n.addr, align 8
  %call2 = call noundef ptr @_Z6to_appPK3ast(ptr noundef %1)
  %call3 = call noundef i32 @_ZNK3app13get_family_idEv(ptr noundef nonnull align 8 dereferenceable(32) %call2)
  %cmp = icmp eq i32 %call3, 5
  br label %land.end

land.end:                                         ; preds = %land.rhs, %entry
  %2 = phi i1 [ false, %entry ], [ %cmp, %land.rhs ]
  ret i1 %2
}

; Function Attrs: mustprogress uwtable
define hidden noundef zeroext i1 @_ZNK5arith6solver7reflectEP4expr(ptr noundef nonnull align 8 dereferenceable(1144) %this, ptr noundef %n) #5 align 2 {
entry:
  %this.addr = alloca ptr, align 8
  %n.addr = alloca ptr, align 8
  store ptr %this, ptr %this.addr, align 8
  store ptr %n, ptr %n.addr, align 8
  %this1 = load ptr, ptr %this.addr, align 8
  %call = call noundef nonnull align 8 dereferenceable(800) ptr @_ZNK3euf13th_euf_solver10get_configEv(ptr noundef nonnull align 8 dereferenceable(108) %this1)
  %add.ptr = getelementptr inbounds i8, ptr %call, i64 248
  %m_arith_reflect = getelementptr inbounds %struct.theory_arith_params, ptr %add.ptr, i32 0, i32 15
  %0 = load i8, ptr %m_arith_reflect, align 4
  %tobool = trunc i8 %0 to i1
  br i1 %tobool, label %lor.end, label %lor.lhs.false

lor.lhs.false:                                    ; preds = %entry
  %a = getelementptr inbounds %"class.arith::solver", ptr %this1, i32 0, i32 52
  %1 = load ptr, ptr %n.addr, align 8
  %call2 = call noundef zeroext i1 @_ZNK10arith_util17is_underspecifiedEP4expr(ptr noundef nonnull align 8 dereferenceable(16) %a, ptr noundef %1)
  br i1 %call2, label %lor.end, label %lor.rhs

lor.rhs:                                          ; preds = %lor.lhs.false
  %a3 = getelementptr inbounds %"class.arith::solver", ptr %this1, i32 0, i32 52
  %2 = load ptr, ptr %n.addr, align 8
  %call4 = call noundef zeroext i1 @_ZNK17arith_recognizers13is_arith_exprEPK4expr(ptr noundef nonnull align 1 dereferenceable(1) %a3, ptr noundef %2)
  %lnot = xor i1 %call4, true
  br label %lor.end

lor.end:                                          ; preds = %lor.rhs, %lor.lhs.false, %entry
  %3 = phi i1 [ true, %lor.lhs.false ], [ true, %entry ], [ %lnot, %lor.rhs ]
  ret i1 %3
}