; Function Attrs: mustprogress uwtable
define hidden noundef zeroext i1 @_ZNK5arith6solver7reflectEP4expr(ptr noundef nonnull align 8 dereferenceable(1144) %this, ptr noundef %n) local_unnamed_addr #3 align 2 {
entry:
  %call = tail call noundef nonnull align 8 dereferenceable(800) ptr @_ZNK3euf13th_euf_solver10get_configEv(ptr noundef nonnull align 8 dereferenceable(108) %this)
  %m_arith_reflect = getelementptr inbounds i8, ptr %call, i64 284
  %0 = load i8, ptr %m_arith_reflect, align 4
  %1 = and i8 %0, 1
  %tobool.not = icmp eq i8 %1, 0
  br i1 %tobool.not, label %lor.lhs.false, label %lor.end

lor.lhs.false:                                    ; preds = %entry
  %a = getelementptr inbounds i8, ptr %this, i64 928
  %call2 = tail call noundef zeroext i1 @_ZNK10arith_util17is_underspecifiedEP4expr(ptr noundef nonnull align 8 dereferenceable(16) %a, ptr noundef %n)
  br i1 %call2, label %lor.end, label %lor.rhs

lor.rhs:                                          ; preds = %lor.lhs.false
  %m_kind.i.i.i = getelementptr inbounds i8, ptr %n, i64 4
  %bf.load.i.i.i = load i32, ptr %m_kind.i.i.i, align 4
  %bf.clear.i.i.i = and i32 %bf.load.i.i.i, 65535
  %cmp.i.i = icmp eq i32 %bf.clear.i.i.i, 0
  br i1 %cmp.i.i, label %land.rhs.i, label %lor.end

land.rhs.i:                                       ; preds = %lor.rhs
  %m_decl.i.i.i = getelementptr inbounds i8, ptr %n, i64 16
  %2 = load ptr, ptr %m_decl.i.i.i, align 8
  %m_info.i.i.i = getelementptr inbounds i8, ptr %2, i64 24
  %3 = load ptr, ptr %m_info.i.i.i, align 8
  %cmp.i.i.i = icmp eq ptr %3, null
  br i1 %cmp.i.i.i, label %lor.end, label %cond.false.i.i.i

cond.false.i.i.i:                                 ; preds = %land.rhs.i
  %4 = load i32, ptr %3, align 8
  %5 = icmp ne i32 %4, 5
  br label %lor.end

lor.end:                                          ; preds = %cond.false.i.i.i, %land.rhs.i, %lor.rhs, %lor.lhs.false, %entry
  %6 = phi i1 [ true, %lor.lhs.false ], [ true, %entry ], [ true, %lor.rhs ], [ %5, %cond.false.i.i.i ], [ true, %land.rhs.i ]
  ret i1 %6
}